; Function Attrs: mustprogress uwtable
define noundef nonnull align 8 dereferenceable(8) ptr @_ZN2cv4gapi4s11nlsERNS1_8IOStreamERKNS_8GMatDescE(ptr noundef nonnull align 8 dereferenceable(8) %0, ptr noundef nonnull readonly align 8 captures(none) dereferenceable(48) %1) local_unnamed_addr #3 {
  %3 = load i32, ptr %1, align 8, !tbaa !283
  %4 = load ptr, ptr %0, align 8, !tbaa !8
  %5 = getelementptr inbounds nuw i8, ptr %4, i64 56
  %6 = load ptr, ptr %5, align 8
  %7 = tail call noundef nonnull align 8 dereferenceable(8) ptr %6(ptr noundef nonnull align 8 dereferenceable(8) %0, i32 noundef %3)
  %8 = getelementptr inbounds nuw i8, ptr %1, i64 4
  %9 = load i32, ptr %8, align 4, !tbaa !288
  %10 = load ptr, ptr %7, align 8, !tbaa !8
  %11 = getelementptr inbounds nuw i8, ptr %10, i64 56
  %12 = load ptr, ptr %11, align 8
  %13 = tail call noundef nonnull align 8 dereferenceable(8) ptr %12(ptr noundef nonnull align 8 dereferenceable(8) %7, i32 noundef %9)
  %14 = getelementptr inbounds nuw i8, ptr %1, i64 8
  %15 = load i32, ptr %14, align 8, !tbaa !19
  %16 = load ptr, ptr %13, align 8, !tbaa !8
  %17 = getelementptr inbounds nuw i8, ptr %16, i64 56
  %18 = load ptr, ptr %17, align 8
  %19 = tail call noundef nonnull align 8 dereferenceable(8) ptr %18(ptr noundef nonnull align 8 dereferenceable(8) %13, i32 noundef %15)
  %20 = getelementptr inbounds nuw i8, ptr %1, i64 12
  %21 = load i32, ptr %20, align 4, !tbaa !21
  %22 = load ptr, ptr %19, align 8, !tbaa !8
  %23 = getelementptr inbounds nuw i8, ptr %22, i64 56
  %24 = load ptr, ptr %23, align 8
  %25 = tail call noundef nonnull align 8 dereferenceable(8) ptr %24(ptr noundef nonnull align 8 dereferenceable(8) %19, i32 noundef %21)
  %26 = getelementptr inbounds nuw i8, ptr %1, i64 16
  %27 = load i8, ptr %26, align 8, !tbaa !289, !range !81, !noundef !82
  %28 = trunc nuw i8 %27 to i1
  %29 = load ptr, ptr %25, align 8, !tbaa !8
  %30 = getelementptr inbounds nuw i8, ptr %29, i64 16
  %31 = load ptr, ptr %30, align 8
  %32 = tail call noundef nonnull align 8 dereferenceable(8) ptr %31(ptr noundef nonnull align 8 dereferenceable(8) %25, i1 noundef zeroext %28)
  %33 = getelementptr inbounds nuw i8, ptr %1, i64 24
  %34 = getelementptr inbounds nuw i8, ptr %1, i64 32
  %35 = load ptr, ptr %34, align 8, !tbaa !132
  %36 = load ptr, ptr %33, align 8, !tbaa !134
  %37 = ptrtoint ptr %35 to i64
  %38 = ptrtoint ptr %36 to i64
  %39 = sub i64 %37, %38
  %40 = lshr exact i64 %39, 2
  %41 = trunc i64 %40 to i32
  %42 = load ptr, ptr %32, align 8, !tbaa !8
  %43 = getelementptr inbounds nuw i8, ptr %42, i64 64
  %44 = load ptr, ptr %43, align 8
  %45 = tail call noundef nonnull align 8 dereferenceable(8) ptr %44(ptr noundef nonnull align 8 dereferenceable(8) %32, i32 noundef %41)
  %46 = load ptr, ptr %33, align 8, !tbaa !135
  %47 = load ptr, ptr %34, align 8, !tbaa !135
  %.not11.i = icmp eq ptr %46, %47
  br i1 %.not11.i, label %_ZN2cv4gapi4s11nlsIiEERNS1_8IOStreamES4_RKSt6vectorIT_SaIS6_EE.exit, label %.lr.ph.i

.lr.ph.i:                                         ; preds = %2, %.lr.ph.i
  %.sroa.08.012.i = phi ptr [ %53, %.lr.ph.i ], [ %46, %2 ]
  %48 = load i32, ptr %.sroa.08.012.i, align 4, !tbaa !38
  %49 = load ptr, ptr %32, align 8, !tbaa !8
  %50 = getelementptr inbounds nuw i8, ptr %49, i64 56
  %51 = load ptr, ptr %50, align 8
  %52 = tail call noundef nonnull align 8 dereferenceable(8) ptr %51(ptr noundef nonnull align 8 dereferenceable(8) %32, i32 noundef %48)
  %53 = getelementptr inbounds nuw i8, ptr %.sroa.08.012.i, i64 4
  %.not.i = icmp eq ptr %53, %47
  br i1 %.not.i, label %_ZN2cv4gapi4s11nlsIiEERNS1_8IOStreamES4_RKSt6vectorIT_SaIS6_EE.exit, label %.lr.ph.i

_ZN2cv4gapi4s11nlsIiEERNS1_8IOStreamES4_RKSt6vectorIT_SaIS6_EE.exit: ; preds = %.lr.ph.i, %2
  ret ptr %32
}